; Function Attrs: mustprogress nofree norecurse nosync nounwind willreturn memory(argmem: read) uwtable
define dso_local zeroext i1 @is_integer(ptr nocapture noundef readonly %ty) local_unnamed_addr #0 {
entry:
  %0 = load i32, ptr %ty, align 8
  %1 = add i32 %0, -1
  %or.cond3 = icmp ult i32 %1, 5
  %cmp8 = icmp eq i32 %0, 9
  %spec.select = or i1 %cmp8, %or.cond3
  ret i1 %spec.select
}